target datalayout = "e-m:e-p270:32:32-p271:32:32-p272:64:64-i64:64-i128:128-f80:128-n8:16:32:64-S128"
target triple = "x86_64-pc-linux-gnu"

%struct.test_fixture = type { ptr, ptr, ptr, ptr, ptr, ptr, i32, ptr, ptr, ptr, i32, i32, i32 }

@ir_unprotected = internal global ptr null, align 8
@.str.14 = private unnamed_addr constant [35 x i8] c"../openssl/test/cmp_protect_test.c\00", align 1
@.str.51 = private unnamed_addr constant [34 x i8] c"test_MSG_protect_no_key_no_secret\00", align 1
@.str.75 = private unnamed_addr constant [48 x i8] c"fixture->msg = OSSL_CMP_MSG_dup(ir_unprotected)\00", align 1
@.str.76 = private unnamed_addr constant [46 x i8] c"SET_OPT_UNPROTECTED_SEND(fixture->cmp_ctx, 0)\00", align 1
@.str.79 = private unnamed_addr constant [18 x i8] c"fixture->expected\00", align 1
@.str.80 = private unnamed_addr constant [53 x i8] c"ossl_cmp_msg_protect(fixture->cmp_ctx, fixture->msg)\00", align 1

; Function Attrs: inlinehint nounwind uwtable
define internal ptr @ossl_check_X509_sk_type(ptr noundef %0) #3 {
  %2 = alloca ptr, align 8
  store ptr %0, ptr %2, align 8, !tbaa !54
  %3 = load ptr, ptr %2, align 8, !tbaa !54
  ret ptr %3
}

; Function Attrs: nounwind uwtable
define internal i32 @execute_MSG_protect_test(ptr noundef %0) #0 {
  %2 = alloca ptr, align 8
  store ptr %0, ptr %2, align 8, !tbaa !19
  %3 = load ptr, ptr %2, align 8, !tbaa !19
  %4 = getelementptr inbounds nuw %struct.test_fixture, ptr %3, i32 0, i32 12
  %5 = load i32, ptr %4, align 8, !tbaa !43
  %6 = load ptr, ptr %2, align 8, !tbaa !19
  %7 = getelementptr inbounds nuw %struct.test_fixture, ptr %6, i32 0, i32 1
  %8 = load ptr, ptr %7, align 8, !tbaa !40
  %9 = load ptr, ptr %2, align 8, !tbaa !19
  %10 = getelementptr inbounds nuw %struct.test_fixture, ptr %9, i32 0, i32 2
  %11 = load ptr, ptr %10, align 8, !tbaa !23
  %12 = call i32 @ossl_cmp_msg_protect(ptr noundef %8, ptr noundef %11)
  %13 = call i32 @test_int_eq(ptr noundef @.str.14, i32 noundef 193, ptr noundef @.str.79, ptr noundef @.str.80, i32 noundef %5, i32 noundef %12)
  ret i32 %13
}

; Function Attrs: nounwind uwtable
define internal void @tear_down(ptr noundef %0) #0 {
  %2 = alloca ptr, align 8
  store ptr %0, ptr %2, align 8, !tbaa !19
  %3 = load ptr, ptr %2, align 8, !tbaa !19
  %4 = icmp ne ptr %3, null
  br i1 %4, label %5, label %27

5:                                                ; preds = %1
  %6 = load ptr, ptr %2, align 8, !tbaa !19
  %7 = getelementptr inbounds nuw %struct.test_fixture, ptr %6, i32 0, i32 1
  %8 = load ptr, ptr %7, align 8, !tbaa !40
  call void @OSSL_CMP_CTX_free(ptr noundef %8)
  %9 = load ptr, ptr %2, align 8, !tbaa !19
  %10 = getelementptr inbounds nuw %struct.test_fixture, ptr %9, i32 0, i32 2
  %11 = load ptr, ptr %10, align 8, !tbaa !23
  call void @OSSL_CMP_MSG_free(ptr noundef %11)
  %12 = load ptr, ptr %2, align 8, !tbaa !19
  %13 = getelementptr inbounds nuw %struct.test_fixture, ptr %12, i32 0, i32 3
  %14 = load ptr, ptr %13, align 8, !tbaa !51
  call void @OSSL_CMP_PKISI_free(ptr noundef %14)
  %15 = load ptr, ptr %2, align 8, !tbaa !19
  %16 = getelementptr inbounds nuw %struct.test_fixture, ptr %15, i32 0, i32 5
  %17 = load ptr, ptr %16, align 8, !tbaa !52
  call void @CRYPTO_free(ptr noundef %17, ptr noundef @.str.14, i32 noundef 46)
  %18 = load ptr, ptr %2, align 8, !tbaa !19
  %19 = getelementptr inbounds nuw %struct.test_fixture, ptr %18, i32 0, i32 8
  %20 = load ptr, ptr %19, align 8, !tbaa !47
  %21 = call ptr @ossl_check_X509_sk_type(ptr noundef %20)
  call void @OPENSSL_sk_free(ptr noundef %21)
  %22 = load ptr, ptr %2, align 8, !tbaa !19
  %23 = getelementptr inbounds nuw %struct.test_fixture, ptr %22, i32 0, i32 9
  %24 = load ptr, ptr %23, align 8, !tbaa !48
  %25 = call ptr @ossl_check_X509_sk_type(ptr noundef %24)
  call void @OPENSSL_sk_free(ptr noundef %25)
  %26 = load ptr, ptr %2, align 8, !tbaa !19
  call void @CRYPTO_free(ptr noundef %26, ptr noundef @.str.14, i32 noundef 50)
  br label %27

27:                                               ; preds = %5, %1
  ret void
}

; Function Attrs: nounwind uwtable
define internal i32 @test_MSG_protect_no_key_no_secret() #0 {
  %1 = alloca i32, align 4
  %2 = alloca ptr, align 8
  %3 = alloca i32, align 4
  %4 = alloca i32, align 4
  call void @llvm.lifetime.start.p0(i64 8, ptr %2) #5
  %5 = call ptr @set_up(ptr noundef @.str.51)
  store ptr %5, ptr %2, align 8, !tbaa !19
  call void @llvm.lifetime.start.p0(i64 4, ptr %3) #5
  store i32 0, ptr %3, align 4, !tbaa !21
  %6 = load ptr, ptr %2, align 8, !tbaa !19
  %7 = icmp eq ptr %6, null
  br i1 %7, label %8, label %9

8:                                                ; preds = %0
  store i32 0, ptr %1, align 4
  store i32 1, ptr %4, align 4
  br label %38

9:                                                ; preds = %0
  %10 = load ptr, ptr %2, align 8, !tbaa !19
  %11 = getelementptr inbounds nuw %struct.test_fixture, ptr %10, i32 0, i32 12
  store i32 0, ptr %11, align 8, !tbaa !43
  %12 = load ptr, ptr @ir_unprotected, align 8, !tbaa !9
  %13 = call ptr @OSSL_CMP_MSG_dup(ptr noundef %12)
  %14 = load ptr, ptr %2, align 8, !tbaa !19
  %15 = getelementptr inbounds nuw %struct.test_fixture, ptr %14, i32 0, i32 2
  store ptr %13, ptr %15, align 8, !tbaa !23
  %16 = call i32 @test_ptr(ptr noundef @.str.14, i32 noundef 278, ptr noundef @.str.75, ptr noundef %13)
  %17 = icmp ne i32 %16, 0
  br i1 %17, label %18, label %27

18:                                               ; preds = %9
  %19 = load ptr, ptr %2, align 8, !tbaa !19
  %20 = getelementptr inbounds nuw %struct.test_fixture, ptr %19, i32 0, i32 1
  %21 = load ptr, ptr %20, align 8, !tbaa !40
  %22 = call i32 @OSSL_CMP_CTX_set_option(ptr noundef %21, i32 noundef 30, i32 noundef 0)
  %23 = icmp ne i32 %22, 0
  %24 = zext i1 %23 to i32
  %25 = call i32 @test_true(ptr noundef @.str.14, i32 noundef 279, ptr noundef @.str.76, i32 noundef %24)
  %26 = icmp ne i32 %25, 0
  br i1 %26, label %29, label %27

27:                                               ; preds = %18, %9
  %28 = load ptr, ptr %2, align 8, !tbaa !19
  call void @tear_down(ptr noundef %28)
  store ptr null, ptr %2, align 8, !tbaa !19
  br label %29

29:                                               ; preds = %27, %18
  %30 = load ptr, ptr %2, align 8, !tbaa !19
  %31 = icmp ne ptr %30, null
  br i1 %31, label %32, label %36

32:                                               ; preds = %29
  %33 = load ptr, ptr %2, align 8, !tbaa !19
  %34 = call i32 @execute_MSG_protect_test(ptr noundef %33)
  store i32 %34, ptr %3, align 4, !tbaa !21
  %35 = load ptr, ptr %2, align 8, !tbaa !19
  call void @tear_down(ptr noundef %35)
  br label %36

36:                                               ; preds = %32, %29
  %37 = load i32, ptr %3, align 4, !tbaa !21
  store i32 %37, ptr %1, align 4
  store i32 1, ptr %4, align 4
  br label %38

38:                                               ; preds = %36, %8
  call void @llvm.lifetime.end.p0(i64 4, ptr %3) #5
  call void @llvm.lifetime.end.p0(i64 8, ptr %2) #5
  %39 = load i32, ptr %1, align 4
  ret i32 %39
}