; Function Attrs: nounwind uwtable
define internal i32 @test_MSG_protect_no_key_no_secret() #0 {
  %1 = tail call fastcc ptr @set_up(ptr noundef nonnull @.str.51)
  %2 = icmp eq ptr %1, null
  br i1 %2, label %31, label %3

3:                                                ; preds = %0
  %4 = getelementptr inbounds nuw i8, ptr %1, i64 88
  store i32 0, ptr %4, align 8, !tbaa !43
  %5 = load ptr, ptr @ir_unprotected, align 8, !tbaa !9
  %6 = tail call ptr @OSSL_CMP_MSG_dup(ptr noundef %5) #5
  %7 = getelementptr inbounds nuw i8, ptr %1, i64 16
  store ptr %6, ptr %7, align 8, !tbaa !19
  %8 = tail call i32 @test_ptr(ptr noundef nonnull @.str.14, i32 noundef 278, ptr noundef nonnull @.str.75, ptr noundef %6) #5
  %.not = icmp eq i32 %8, 0
  br i1 %.not, label %.thread, label %9

9:                                                ; preds = %3
  %10 = getelementptr inbounds nuw i8, ptr %1, i64 8
  %11 = load ptr, ptr %10, align 8, !tbaa !36
  %12 = tail call i32 @OSSL_CMP_CTX_set_option(ptr noundef %11, i32 noundef 30, i32 noundef 0) #5
  %13 = icmp ne i32 %12, 0
  %14 = zext i1 %13 to i32
  %15 = tail call i32 @test_true(ptr noundef nonnull @.str.14, i32 noundef 279, ptr noundef nonnull @.str.76, i32 noundef %14) #5
  %.not12 = icmp eq i32 %15, 0
  br i1 %.not12, label %.thread, label %tear_down.exit15

.thread:                                          ; preds = %3, %9
  %16 = getelementptr inbounds nuw i8, ptr %1, i64 8
  br label %.sink.split

tear_down.exit15:                                 ; preds = %9
  %17 = load i32, ptr %4, align 8, !tbaa !43
  %18 = load ptr, ptr %10, align 8, !tbaa !36
  %19 = load ptr, ptr %7, align 8, !tbaa !19
  %20 = tail call i32 @ossl_cmp_msg_protect(ptr noundef %18, ptr noundef %19) #5
  %21 = tail call i32 @test_int_eq(ptr noundef nonnull @.str.14, i32 noundef 193, ptr noundef nonnull @.str.79, ptr noundef nonnull @.str.80, i32 noundef %17, i32 noundef %20) #5
  br label %.sink.split

.sink.split:                                      ; preds = %tear_down.exit15, %.thread
  %.sink.in = phi ptr [ %16, %.thread ], [ %10, %tear_down.exit15 ]
  %.010.ph = phi i32 [ 0, %.thread ], [ %21, %tear_down.exit15 ]
  %.sink = load ptr, ptr %.sink.in, align 8, !tbaa !36
  tail call void @OSSL_CMP_CTX_free(ptr noundef %.sink) #5
  %22 = load ptr, ptr %7, align 8, !tbaa !19
  tail call void @OSSL_CMP_MSG_free(ptr noundef %22) #5
  %23 = getelementptr inbounds nuw i8, ptr %1, i64 24
  %24 = load ptr, ptr %23, align 8, !tbaa !37
  tail call void @OSSL_CMP_PKISI_free(ptr noundef %24) #5
  %25 = getelementptr inbounds nuw i8, ptr %1, i64 40
  %26 = load ptr, ptr %25, align 8, !tbaa !38
  tail call void @CRYPTO_free(ptr noundef %26, ptr noundef nonnull @.str.14, i32 noundef 46) #5
  %27 = getelementptr inbounds nuw i8, ptr %1, i64 64
  %28 = load ptr, ptr %27, align 8, !tbaa !39
  tail call void @OPENSSL_sk_free(ptr noundef %28) #5
  %29 = getelementptr inbounds nuw i8, ptr %1, i64 72
  %30 = load ptr, ptr %29, align 8, !tbaa !40
  tail call void @OPENSSL_sk_free(ptr noundef %30) #5
  tail call void @CRYPTO_free(ptr noundef nonnull %1, ptr noundef nonnull @.str.14, i32 noundef 50) #5
  br label %31

31:                                               ; preds = %.sink.split, %0
  %.010 = phi i32 [ 0, %0 ], [ %.010.ph, %.sink.split ]
  ret i32 %.010
}